; Function Attrs: mustprogress nounwind uwtable
define hidden void @_ZNK4llvm16CoroAsyncEndInst15checkWellFormedEv(ptr noundef nonnull align 8 dereferenceable(88) %0) local_unnamed_addr #0 align 2 {
  %2 = tail call noundef ptr @_ZN4llvm8CallBase7arg_endEv(ptr noundef nonnull align 8 dereferenceable(88) %0)
  %3 = getelementptr inbounds nuw i8, ptr %0, i64 4
  %4 = load i32, ptr %3, align 4
  %5 = and i32 %4, 134217727
  %6 = zext nneg i32 %5 to i64
  %7 = sub nsw i64 0, %6
  %8 = getelementptr inbounds %"class.llvm::Use", ptr %0, i64 %7
  %9 = ptrtoint ptr %2 to i64
  %10 = ptrtoint ptr %8 to i64
  %11 = sub i64 %9, %10
  %12 = lshr exact i64 %11, 5
  %13 = trunc i64 %12 to i32
  %14 = icmp ult i32 %13, 3
  br i1 %14, label %_ZNK4llvm16CoroAsyncEndInst23getMustTailCallFunctionEv.exit.thread, label %_ZNK4llvm16CoroAsyncEndInst23getMustTailCallFunctionEv.exit

_ZNK4llvm16CoroAsyncEndInst23getMustTailCallFunctionEv.exit: ; preds = %1
  %15 = getelementptr inbounds i8, ptr %8, i64 64
  %16 = load ptr, ptr %15, align 8
  %17 = tail call noundef ptr @_ZNK4llvm5Value17stripPointerCastsEv(ptr noundef nonnull align 8 dereferenceable(24) %16) #14
  %.not = icmp eq ptr %17, null
  br i1 %.not, label %_ZNK4llvm16CoroAsyncEndInst23getMustTailCallFunctionEv.exit.thread, label %18

18:                                               ; preds = %_ZNK4llvm16CoroAsyncEndInst23getMustTailCallFunctionEv.exit
  %19 = getelementptr inbounds nuw i8, ptr %17, i64 24
  %20 = load ptr, ptr %19, align 8
  %21 = getelementptr inbounds nuw i8, ptr %20, i64 12
  %22 = load i32, ptr %21, align 4
  %23 = tail call noundef ptr @_ZN4llvm8CallBase7arg_endEv(ptr noundef nonnull align 8 dereferenceable(88) %0)
  %24 = load i32, ptr %3, align 4
  %25 = and i32 %24, 134217727
  %26 = zext nneg i32 %25 to i64
  %27 = sub nsw i64 0, %26
  %28 = getelementptr inbounds %"class.llvm::Use", ptr %0, i64 %27
  %29 = ptrtoint ptr %23 to i64
  %30 = ptrtoint ptr %28 to i64
  %31 = sub i64 %29, %30
  %32 = lshr exact i64 %31, 5
  %33 = trunc i64 %32 to i32
  %34 = add i32 %33, -2
  %.not5 = icmp eq i32 %22, %34
  br i1 %.not5, label %_ZNK4llvm16CoroAsyncEndInst23getMustTailCallFunctionEv.exit.thread, label %35

35:                                               ; preds = %18
  tail call fastcc void @_ZL4failPKN4llvm11InstructionEPKcPNS_5ValueE(ptr noundef nonnull @.str.15) #15
  unreachable

_ZNK4llvm16CoroAsyncEndInst23getMustTailCallFunctionEv.exit.thread: ; preds = %1, %_ZNK4llvm16CoroAsyncEndInst23getMustTailCallFunctionEv.exit, %18
  ret void
}